target datalayout = "e-m:e-p270:32:32-p271:32:32-p272:64:64-i64:64-i128:128-f80:128-n8:16:32:64-S128"
target triple = "x86_64-pc-linux-gnu"

%struct.rb_imemo_tmpbuf_struct = type { i64, i64, ptr, ptr, i64 }

; Function Attrs: inlinehint nounwind sspstrong uwtable
define internal ptr @rb_imemo_tmpbuf_set_ptr(i64 noundef %0, ptr noundef %1) #2 {
  %3 = alloca i64, align 8
  %4 = alloca ptr, align 8
  store i64 %0, ptr %3, align 8, !tbaa !7
  store ptr %1, ptr %4, align 8, !tbaa !14
  %5 = load ptr, ptr %4, align 8, !tbaa !14
  %6 = load i64, ptr %3, align 8, !tbaa !7
  %7 = inttoptr i64 %6 to ptr
  %8 = getelementptr inbounds nuw %struct.rb_imemo_tmpbuf_struct, ptr %7, i32 0, i32 2
  store ptr %5, ptr %8, align 8, !tbaa !15
  ret ptr %5
}

; Function Attrs: inlinehint nounwind sspstrong uwtable
define internal i64 @rb_imemo_tmpbuf_auto_free_pointer() #2 {
  %1 = call i64 @rb_imemo_new(i32 noundef 8, i64 noundef 0, i64 noundef 40)
  ret i64 %1
}

; Function Attrs: nounwind sspstrong uwtable
define hidden i64 @rb_dir_getwd_ospath() #0 {
  %1 = alloca ptr, align 8
  %2 = alloca i64, align 8
  %3 = alloca i64, align 8
  call void @llvm.lifetime.start.p0(i64 8, ptr %1) #26
  call void @llvm.lifetime.start.p0(i64 8, ptr %2) #26
  call void @llvm.lifetime.start.p0(i64 8, ptr %3) #26
  %4 = call i64 @rb_imemo_tmpbuf_auto_free_pointer()
  store i64 %4, ptr %3, align 8, !tbaa !7
  %5 = call noalias nonnull ptr @ruby_getcwd()
  store ptr %5, ptr %1, align 8, !tbaa !11
  %6 = load i64, ptr %3, align 8, !tbaa !7
  %7 = load ptr, ptr %1, align 8, !tbaa !11
  %8 = call ptr @rb_imemo_tmpbuf_set_ptr(i64 noundef %6, ptr noundef %7)
  %9 = load ptr, ptr %1, align 8, !tbaa !11
  %10 = call i64 @rb_str_new_cstr(ptr noundef %9)
  store i64 %10, ptr %2, align 8, !tbaa !7
  call void @rb_free_tmp_buffer(ptr noundef %3)
  %11 = load i64, ptr %2, align 8, !tbaa !7
  call void @llvm.lifetime.end.p0(i64 8, ptr %3) #26
  call void @llvm.lifetime.end.p0(i64 8, ptr %2) #26
  call void @llvm.lifetime.end.p0(i64 8, ptr %1) #26
  ret i64 %11
}