; Function Attrs: nounwind sspstrong uwtable
define hidden i64 @rb_dir_getwd_ospath() local_unnamed_addr #0 {
  %1 = alloca i64, align 8
  call void @llvm.lifetime.start.p0(i64 8, ptr nonnull %1) #22
  %2 = tail call i64 @rb_imemo_new(i32 noundef 8, i64 noundef 0, i64 noundef 40) #22
  store i64 %2, ptr %1, align 8, !tbaa !7
  %3 = tail call noalias nonnull ptr @ruby_getcwd() #22
  %4 = inttoptr i64 %2 to ptr
  %5 = getelementptr inbounds nuw i8, ptr %4, i64 16
  store ptr %3, ptr %5, align 8, !tbaa !11
  %6 = tail call i64 @rb_str_new_cstr(ptr noundef nonnull %3) #22
  call void @rb_free_tmp_buffer(ptr noundef nonnull %1) #22
  call void @llvm.lifetime.end.p0(i64 8, ptr nonnull %1) #22
  ret i64 %6
}